target datalayout = "e-m:e-p270:32:32-p271:32:32-p272:64:64-i64:64-i128:128-f80:128-n8:16:32:64-S128"
target triple = "x86_64-pc-linux-gnu"

%struct.Abc_Frame_t_ = type { ptr, ptr, ptr, ptr, ptr, ptr, ptr, ptr, ptr, ptr, i32, i32, i32, i32, i32, ptr, float, float, i32, i32, ptr, ptr, ptr, double, double, ptr, ptr, ptr, ptr, ptr, ptr, ptr, ptr, ptr, ptr, ptr, ptr, float, ptr, i32, ptr, ptr, ptr, ptr, ptr, i32, i32, i32, i32, i32, i32, ptr, ptr, ptr, ptr, ptr, ptr, i32, i32, ptr, ptr, ptr, ptr, ptr, ptr, ptr, ptr, ptr, ptr, ptr, ptr, ptr, ptr, ptr, ptr, ptr, ptr, ptr, ptr, ptr, ptr, ptr, ptr, ptr, ptr, ptr, ptr, ptr, ptr }
%struct.Cba_Man_t_ = type { ptr, ptr, ptr, ptr, ptr, ptr, %struct.Vec_Int_t_, %struct.Vec_Int_t_, %struct.Vec_Int_t_, %struct.Vec_Int_t_, [90 x ptr], [90 x i32], [90 x i32], i32, %struct.Vec_Ptr_t_, i32, %struct.Vec_Str_t_, %struct.Vec_Str_t_, ptr }
%struct.Vec_Int_t_ = type { i32, i32, ptr }
%struct.Vec_Ptr_t_ = type { i32, i32, ptr }
%struct.Vec_Str_t_ = type { i32, i32, ptr }

@globalUtilOptind = external global i32, align 4
@.str.20 = private unnamed_addr constant [5 x i8] c"blif\00", align 1
@.str.21 = private unnamed_addr constant [2 x i8] c"v\00", align 1
@.str.23 = private unnamed_addr constant [4 x i8] c"cba\00", align 1
@.str.27 = private unnamed_addr constant [4 x i8] c"yes\00", align 1
@.str.28 = private unnamed_addr constant [3 x i8] c"no\00", align 1
@.str.30 = private unnamed_addr constant [62 x i8] c"\09-v     : toggle printing verbose information [default = %s]\0A\00", align 1
@.str.31 = private unnamed_addr constant [35 x i8] c"\09-h     : print the command usage\0A\00", align 1
@.str.39 = private unnamed_addr constant [4 x i8] c"cvh\00", align 1
@.str.40 = private unnamed_addr constant [49 x i8] c"Cba_CommandWrite(): There is no current design.\0A\00", align 1
@.str.41 = private unnamed_addr constant [7 x i8] c"_out.v\00", align 1
@.str.42 = private unnamed_addr constant [34 x i8] c"Generated output file name \22%s\22.\0A\00", align 1
@.str.43 = private unnamed_addr constant [55 x i8] c"Output file name should be given on the command line.\0A\00", align 1
@.str.44 = private unnamed_addr constant [37 x i8] c"Unrecognized output file extension.\0A\00", align 1
@.str.45 = private unnamed_addr constant [22 x i8] c"usage: :write [-cvh]\0A\00", align 1
@.str.46 = private unnamed_addr constant [60 x i8] c"\09         writes the design into a file in BLIF or Verilog\0A\00", align 1
@.str.47 = private unnamed_addr constant [63 x i8] c"\09-c     : toggle inlining input concatenations [default = %s]\0A\00", align 1

; Function Attrs: inlinehint nounwind uwtable
define internal ptr @Cba_ManName(ptr noundef %0) #2 {
  %2 = alloca ptr, align 8
  store ptr %0, ptr %2, align 8, !tbaa !12
  %3 = load ptr, ptr %2, align 8, !tbaa !12
  %4 = getelementptr inbounds nuw %struct.Cba_Man_t_, ptr %3, i32 0, i32 0
  %5 = load ptr, ptr %4, align 8, !tbaa !66
  ret ptr %5
}

; Function Attrs: inlinehint nounwind uwtable
define internal ptr @Cba_ManSpec(ptr noundef %0) #2 {
  %2 = alloca ptr, align 8
  store ptr %0, ptr %2, align 8, !tbaa !12
  %3 = load ptr, ptr %2, align 8, !tbaa !12
  %4 = getelementptr inbounds nuw %struct.Cba_Man_t_, ptr %3, i32 0, i32 1
  %5 = load ptr, ptr %4, align 8, !tbaa !47
  ret ptr %5
}

; Function Attrs: inlinehint nounwind uwtable
define internal ptr @Cba_AbcGetMan(ptr noundef %0) #2 {
  %2 = alloca ptr, align 8
  store ptr %0, ptr %2, align 8, !tbaa !3
  %3 = load ptr, ptr %2, align 8, !tbaa !3
  %4 = getelementptr inbounds nuw %struct.Abc_Frame_t_, ptr %3, i32 0, i32 75
  %5 = load ptr, ptr %4, align 8, !tbaa !57
  ret ptr %5
}

; Function Attrs: nounwind uwtable
define internal i32 @Cba_CommandWrite(ptr noundef %0, i32 noundef %1, ptr noundef %2) #0 {
  %4 = alloca i32, align 4
  %5 = alloca ptr, align 8
  %6 = alloca i32, align 4
  %7 = alloca ptr, align 8
  %8 = alloca ptr, align 8
  %9 = alloca ptr, align 8
  %10 = alloca i32, align 4
  %11 = alloca i32, align 4
  %12 = alloca i32, align 4
  %13 = alloca i32, align 4
  store ptr %0, ptr %5, align 8, !tbaa !3
  store i32 %1, ptr %6, align 4, !tbaa !8
  store ptr %2, ptr %7, align 8, !tbaa !10
  call void @llvm.lifetime.start.p0(i64 8, ptr %8) #14
  %14 = load ptr, ptr %5, align 8, !tbaa !3
  %15 = call ptr @Cba_AbcGetMan(ptr noundef %14)
  store ptr %15, ptr %8, align 8, !tbaa !12
  call void @llvm.lifetime.start.p0(i64 8, ptr %9) #14
  store ptr null, ptr %9, align 8, !tbaa !14
  call void @llvm.lifetime.start.p0(i64 4, ptr %10) #14
  store i32 0, ptr %10, align 4, !tbaa !8
  call void @llvm.lifetime.start.p0(i64 4, ptr %11) #14
  call void @llvm.lifetime.start.p0(i64 4, ptr %12) #14
  store i32 0, ptr %12, align 4, !tbaa !8
  call void (...) @Extra_UtilGetoptReset()
  br label %16

16:                                               ; preds = %31, %3
  %17 = load i32, ptr %6, align 4, !tbaa !8
  %18 = load ptr, ptr %7, align 8, !tbaa !10
  %19 = call i32 @Extra_UtilGetopt(i32 noundef %17, ptr noundef %18, ptr noundef @.str.39)
  store i32 %19, ptr %11, align 4, !tbaa !8
  %20 = icmp ne i32 %19, -1
  br i1 %20, label %21, label %32

21:                                               ; preds = %16
  %22 = load i32, ptr %11, align 4, !tbaa !8
  switch i32 %22, label %30 [
    i32 99, label %23
    i32 118, label %26
    i32 104, label %29
  ]

23:                                               ; preds = %21
  %24 = load i32, ptr %10, align 4, !tbaa !8
  %25 = xor i32 %24, 1
  store i32 %25, ptr %10, align 4, !tbaa !8
  br label %31

26:                                               ; preds = %21
  %27 = load i32, ptr %12, align 4, !tbaa !8
  %28 = xor i32 %27, 1
  store i32 %28, ptr %12, align 4, !tbaa !8
  br label %31

29:                                               ; preds = %21
  br label %102

30:                                               ; preds = %21
  br label %102

31:                                               ; preds = %26, %23
  br label %16, !llvm.loop !20

32:                                               ; preds = %16
  %33 = load ptr, ptr %8, align 8, !tbaa !12
  %34 = icmp eq ptr %33, null
  br i1 %34, label %35, label %36

35:                                               ; preds = %32
  call void (i32, ptr, ...) @Abc_Print(i32 noundef 1, ptr noundef @.str.40)
  store i32 0, ptr %4, align 4
  store i32 1, ptr %13, align 4
  br label %109

36:                                               ; preds = %32
  %37 = load i32, ptr %6, align 4, !tbaa !8
  %38 = load i32, ptr @globalUtilOptind, align 4, !tbaa !8
  %39 = add nsw i32 %38, 1
  %40 = icmp eq i32 %37, %39
  br i1 %40, label %41, label %47

41:                                               ; preds = %36
  %42 = load ptr, ptr %7, align 8, !tbaa !10
  %43 = load i32, ptr @globalUtilOptind, align 4, !tbaa !8
  %44 = sext i32 %43 to i64
  %45 = getelementptr inbounds ptr, ptr %42, i64 %44
  %46 = load ptr, ptr %45, align 8, !tbaa !14
  store ptr %46, ptr %9, align 8, !tbaa !14
  br label %72

47:                                               ; preds = %36
  %48 = load i32, ptr %6, align 4, !tbaa !8
  %49 = load i32, ptr @globalUtilOptind, align 4, !tbaa !8
  %50 = icmp eq i32 %48, %49
  br i1 %50, label %51, label %69

51:                                               ; preds = %47
  %52 = load ptr, ptr %8, align 8, !tbaa !12
  %53 = icmp ne ptr %52, null
  br i1 %53, label %54, label %69

54:                                               ; preds = %51
  %55 = load ptr, ptr %8, align 8, !tbaa !12
  %56 = call ptr @Cba_ManSpec(ptr noundef %55)
  %57 = icmp ne ptr %56, null
  br i1 %57, label %58, label %61

58:                                               ; preds = %54
  %59 = load ptr, ptr %8, align 8, !tbaa !12
  %60 = call ptr @Cba_ManSpec(ptr noundef %59)
  br label %64

61:                                               ; preds = %54
  %62 = load ptr, ptr %8, align 8, !tbaa !12
  %63 = call ptr @Cba_ManName(ptr noundef %62)
  br label %64

64:                                               ; preds = %61, %58
  %65 = phi ptr [ %60, %58 ], [ %63, %61 ]
  %66 = call ptr @Extra_FileNameGenericAppend(ptr noundef %65, ptr noundef @.str.41)
  store ptr %66, ptr %9, align 8, !tbaa !14
  %67 = load ptr, ptr %9, align 8, !tbaa !14
  %68 = call i32 (ptr, ...) @printf(ptr noundef @.str.42, ptr noundef %67)
  br label %71

69:                                               ; preds = %51, %47
  %70 = call i32 (ptr, ...) @printf(ptr noundef @.str.43)
  store i32 0, ptr %4, align 4
  store i32 1, ptr %13, align 4
  br label %109

71:                                               ; preds = %64
  br label %72

72:                                               ; preds = %71, %41
  %73 = load ptr, ptr %9, align 8, !tbaa !14
  %74 = call ptr @Extra_FileNameExtension(ptr noundef %73)
  %75 = call i32 @strcmp(ptr noundef %74, ptr noundef @.str.20) #15
  %76 = icmp ne i32 %75, 0
  br i1 %76, label %80, label %77

77:                                               ; preds = %72
  %78 = load ptr, ptr %9, align 8, !tbaa !14
  %79 = load ptr, ptr %8, align 8, !tbaa !12
  call void @Cba_ManWriteBlif(ptr noundef %78, ptr noundef %79)
  br label %101

80:                                               ; preds = %72
  %81 = load ptr, ptr %9, align 8, !tbaa !14
  %82 = call ptr @Extra_FileNameExtension(ptr noundef %81)
  %83 = call i32 @strcmp(ptr noundef %82, ptr noundef @.str.21) #15
  %84 = icmp ne i32 %83, 0
  br i1 %84, label %89, label %85

85:                                               ; preds = %80
  %86 = load ptr, ptr %9, align 8, !tbaa !14
  %87 = load ptr, ptr %8, align 8, !tbaa !12
  %88 = load i32, ptr %10, align 4, !tbaa !8
  call void @Cba_ManWriteVerilog(ptr noundef %86, ptr noundef %87, i32 noundef %88)
  br label %100

89:                                               ; preds = %80
  %90 = load ptr, ptr %9, align 8, !tbaa !14
  %91 = call ptr @Extra_FileNameExtension(ptr noundef %90)
  %92 = call i32 @strcmp(ptr noundef %91, ptr noundef @.str.23) #15
  %93 = icmp ne i32 %92, 0
  br i1 %93, label %97, label %94

94:                                               ; preds = %89
  %95 = load ptr, ptr %9, align 8, !tbaa !14
  %96 = load ptr, ptr %8, align 8, !tbaa !12
  call void @Cba_ManWriteCba(ptr noundef %95, ptr noundef %96)
  br label %99

97:                                               ; preds = %89
  %98 = call i32 (ptr, ...) @printf(ptr noundef @.str.44)
  store i32 0, ptr %4, align 4
  store i32 1, ptr %13, align 4
  br label %109

99:                                               ; preds = %94
  br label %100

100:                                              ; preds = %99, %85
  br label %101

101:                                              ; preds = %100, %77
  store i32 0, ptr %4, align 4
  store i32 1, ptr %13, align 4
  br label %109

102:                                              ; preds = %30, %29
  call void (i32, ptr, ...) @Abc_Print(i32 noundef -2, ptr noundef @.str.45)
  call void (i32, ptr, ...) @Abc_Print(i32 noundef -2, ptr noundef @.str.46)
  %103 = load i32, ptr %10, align 4, !tbaa !8
  %104 = icmp ne i32 %103, 0
  %105 = select i1 %104, ptr @.str.27, ptr @.str.28
  call void (i32, ptr, ...) @Abc_Print(i32 noundef -2, ptr noundef @.str.47, ptr noundef %105)
  %106 = load i32, ptr %12, align 4, !tbaa !8
  %107 = icmp ne i32 %106, 0
  %108 = select i1 %107, ptr @.str.27, ptr @.str.28
  call void (i32, ptr, ...) @Abc_Print(i32 noundef -2, ptr noundef @.str.30, ptr noundef %108)
  call void (i32, ptr, ...) @Abc_Print(i32 noundef -2, ptr noundef @.str.31)
  store i32 1, ptr %4, align 4
  store i32 1, ptr %13, align 4
  br label %109

109:                                              ; preds = %102, %101, %97, %69, %35
  call void @llvm.lifetime.end.p0(i64 4, ptr %12) #14
  call void @llvm.lifetime.end.p0(i64 4, ptr %11) #14
  call void @llvm.lifetime.end.p0(i64 4, ptr %10) #14
  call void @llvm.lifetime.end.p0(i64 8, ptr %9) #14
  call void @llvm.lifetime.end.p0(i64 8, ptr %8) #14
  %110 = load i32, ptr %4, align 4
  ret i32 %110
}