; Function Attrs: nounwind uwtable
define internal range(i32 0, 2) i32 @Cba_CommandWrite(ptr noundef readonly captures(none) %0, i32 noundef %1, ptr noundef %2) #0 {
  %4 = getelementptr i8, ptr %0, i64 536
  %.val = load ptr, ptr %4, align 8, !tbaa !63
  tail call void (...) @Extra_UtilGetoptReset() #19
  br label %.outer

.outer:                                           ; preds = %7, %3
  %.029.ph = phi i32 [ %8, %7 ], [ 0, %3 ]
  %.0.ph = phi i32 [ %.0, %7 ], [ 0, %3 ]
  br label %5

5:                                                ; preds = %.outer, %9
  %.0 = phi i32 [ %10, %9 ], [ %.0.ph, %.outer ]
  %6 = tail call i32 @Extra_UtilGetopt(i32 noundef %1, ptr noundef %2, ptr noundef nonnull @.str.39) #19
  switch i32 %6, label %46 [
    i32 -1, label %11
    i32 99, label %7
    i32 118, label %9
  ]

7:                                                ; preds = %5
  %8 = xor i32 %.029.ph, 1
  br label %.outer, !llvm.loop !74

9:                                                ; preds = %5
  %10 = xor i32 %.0, 1
  br label %5, !llvm.loop !74

11:                                               ; preds = %5
  %12 = icmp eq ptr %.val, null
  br i1 %12, label %13, label %14

13:                                               ; preds = %11
  tail call void (i32, ptr, ...) @Abc_Print(i32 noundef 1, ptr noundef nonnull @.str.40)
  br label %49

14:                                               ; preds = %11
  %15 = load i32, ptr @globalUtilOptind, align 4, !tbaa !5
  %16 = add nsw i32 %15, 1
  %17 = icmp eq i32 %1, %16
  br i1 %17, label %18, label %22

18:                                               ; preds = %14
  %19 = sext i32 %15 to i64
  %20 = getelementptr inbounds ptr, ptr %2, i64 %19
  %21 = load ptr, ptr %20, align 8, !tbaa !9
  br label %32

22:                                               ; preds = %14
  %23 = icmp eq i32 %1, %15
  br i1 %23, label %24, label %31

24:                                               ; preds = %22
  %25 = getelementptr i8, ptr %.val, i64 8
  %.val43 = load ptr, ptr %25, align 8, !tbaa !12
  %.not35 = icmp eq ptr %.val43, null
  br i1 %.not35, label %26, label %27

26:                                               ; preds = %24
  %.val42 = load ptr, ptr %.val, align 8, !tbaa !27
  br label %27

27:                                               ; preds = %24, %26
  %28 = phi ptr [ %.val42, %26 ], [ %.val43, %24 ]
  %29 = tail call ptr @Extra_FileNameGenericAppend(ptr noundef %28, ptr noundef nonnull @.str.41) #19
  %30 = tail call i32 (ptr, ...) @printf(ptr noundef nonnull dereferenceable(1) @.str.42, ptr noundef %29)
  br label %32

31:                                               ; preds = %22
  %puts = tail call i32 @puts(ptr nonnull dereferenceable(1) @str.3)
  br label %49

32:                                               ; preds = %27, %18
  %.031 = phi ptr [ %21, %18 ], [ %29, %27 ]
  %33 = tail call ptr @Extra_FileNameExtension(ptr noundef %.031) #19
  %34 = tail call i32 @strcmp(ptr noundef nonnull dereferenceable(1) %33, ptr noundef nonnull dereferenceable(5) @.str.20) #20
  %.not36 = icmp eq i32 %34, 0
  br i1 %.not36, label %35, label %sub_0

35:                                               ; preds = %32
  tail call void @Cba_ManWriteBlif(ptr noundef %.031, ptr noundef nonnull %.val) #19
  br label %49

sub_0:                                            ; preds = %32
  %36 = tail call ptr @Extra_FileNameExtension(ptr noundef %.031) #19
  %37 = load i8, ptr %36, align 1
  %.not = icmp eq i8 %37, 118
  br i1 %.not, label %.tail, label %.tail.thread

.tail:                                            ; preds = %sub_0
  %38 = getelementptr inbounds nuw i8, ptr %36, i64 1
  %39 = load i8, ptr %38, align 1
  %40 = icmp eq i8 %39, 0
  br i1 %40, label %41, label %.tail.thread

41:                                               ; preds = %.tail
  tail call void @Cba_ManWriteVerilog(ptr noundef %.031, ptr noundef nonnull %.val, i32 noundef %.029.ph) #19
  br label %49

.tail.thread:                                     ; preds = %sub_0, %.tail
  %42 = tail call ptr @Extra_FileNameExtension(ptr noundef %.031) #19
  %43 = tail call i32 @strcmp(ptr noundef nonnull dereferenceable(1) %42, ptr noundef nonnull dereferenceable(4) @.str.23) #20
  %.not38 = icmp eq i32 %43, 0
  br i1 %.not38, label %44, label %45

44:                                               ; preds = %.tail.thread
  tail call void @Cba_ManWriteCba(ptr noundef %.031, ptr noundef nonnull %.val) #19
  br label %49

45:                                               ; preds = %.tail.thread
  %puts39 = tail call i32 @puts(ptr nonnull dereferenceable(1) @str.4)
  br label %49

46:                                               ; preds = %5
  tail call void (i32, ptr, ...) @Abc_Print(i32 noundef -2, ptr noundef nonnull @.str.45)
  tail call void (i32, ptr, ...) @Abc_Print(i32 noundef -2, ptr noundef nonnull @.str.46)
  %.not40 = icmp eq i32 %.029.ph, 0
  %47 = select i1 %.not40, ptr @.str.28, ptr @.str.27
  tail call void (i32, ptr, ...) @Abc_Print(i32 noundef -2, ptr noundef nonnull @.str.47, ptr noundef nonnull %47)
  %.not41 = icmp eq i32 %.0, 0
  %48 = select i1 %.not41, ptr @.str.28, ptr @.str.27
  tail call void (i32, ptr, ...) @Abc_Print(i32 noundef -2, ptr noundef nonnull @.str.30, ptr noundef nonnull %48)
  tail call void (i32, ptr, ...) @Abc_Print(i32 noundef -2, ptr noundef nonnull @.str.31)
  br label %49

49:                                               ; preds = %35, %44, %41, %46, %45, %31, %13
  %.028 = phi i32 [ 1, %46 ], [ 0, %13 ], [ 0, %45 ], [ 0, %31 ], [ 0, %41 ], [ 0, %44 ], [ 0, %35 ]
  ret i32 %.028
}